; Function Attrs: mustprogress nofree norecurse nosync nounwind willreturn memory(none) uwtable
define ptr @av_color_transfer_name(i32 noundef %0) local_unnamed_addr #3 {
  %2 = icmp ult i32 %0, 19
  br i1 %2, label %3, label %7

3:                                                ; preds = %1
  %4 = zext nneg i32 %0 to i64
  %5 = getelementptr inbounds nuw [19 x ptr], ptr @color_transfer_names, i64 0, i64 %4
  %6 = load ptr, ptr %5, align 8, !tbaa !13
  br label %7

7:                                                ; preds = %1, %3
  %8 = phi ptr [ %6, %3 ], [ null, %1 ]
  ret ptr %8
}